; Function Attrs: mustprogress uwtable
define void @_ZN2cv4gapi3wip3gst15GStreamerSourceC2ERKNSt7__cxx1112basic_stringIcSt11char_traitsIcESaIcEEENS3_10OutputTypeE(ptr noundef nonnull align 8 dereferenceable(32) initializes((0, 24)) %0, ptr noundef nonnull align 8 dereferenceable(32) %1, i32 noundef %2) unnamed_addr #3 align 2 personality ptr @__gxx_personality_v0 {
  %4 = getelementptr inbounds nuw i8, ptr %0, i64 8
  tail call void @llvm.memset.p0.i64(ptr noundef nonnull align 8 dereferenceable(16) %4, i8 0, i64 16, i1 false)
  store ptr getelementptr inbounds nuw inrange(-16, 40) (i8, ptr @_ZTVN2cv4gapi3wip3gst15GStreamerSourceE, i64 16), ptr %0, align 8, !tbaa !3
  %5 = invoke noalias noundef nonnull dereferenceable(304) ptr @_Znwm(i64 noundef 304) #24
          to label %6 unwind label %9

6:                                                ; preds = %3
  invoke void @_ZN2cv4gapi3wip3gst15GStreamerSource4PrivC1ERKNSt7__cxx1112basic_stringIcSt11char_traitsIcESaIcEEENS3_10OutputTypeE(ptr noundef nonnull align 8 dereferenceable(304) %5, ptr noundef nonnull align 8 dereferenceable(32) %1, i32 noundef %2)
          to label %7 unwind label %11

7:                                                ; preds = %6
  %8 = getelementptr inbounds nuw i8, ptr %0, i64 24
  store ptr %5, ptr %8, align 8, !tbaa !145
  ret void

9:                                                ; preds = %3
  %10 = landingpad { ptr, i32 }
          cleanup
  br label %13

11:                                               ; preds = %6
  %12 = landingpad { ptr, i32 }
          cleanup
  tail call void @_ZdlPv(ptr noundef nonnull %5) #25
  br label %13

13:                                               ; preds = %11, %9
  %.pn = phi { ptr, i32 } [ %12, %11 ], [ %10, %9 ]
  tail call void @_ZN2cv4gapi3wip13IStreamSourceD2Ev(ptr noundef nonnull align 8 dereferenceable(24) %0) #26
  resume { ptr, i32 } %.pn
}